target datalayout = "e-m:e-p270:32:32-p271:32:32-p272:64:64-i64:64-i128:128-f80:128-n8:16:32:64-S128"
target triple = "x86_64-pc-linux-gnu"

%struct._voip_calls_tapinfo = type { ptr, ptr, ptr, ptr, i32, ptr, [1 x ptr], i32, ptr, i32, i32, i32, ptr, ptr, i32, ptr, i32, i8, i8, ptr, i32, i32, i32, i8, i32, ptr, ptr, ptr, i8, i32, i32, i32, i16, i32, i8, i32, i32, i32, i32, i32, i32, i8 }

; Function Attrs: inlinehint nounwind null_pointer_is_valid sspstrong uwtable
define internal ptr @tap_id_to_base(ptr noundef %0, i32 noundef %1) #4 {
  %3 = alloca ptr, align 8
  %4 = alloca i32, align 4
  store ptr %0, ptr %3, align 8
  store i32 %1, ptr %4, align 4
  %5 = load ptr, ptr %3, align 8
  %6 = ptrtoint ptr %5 to i64
  %7 = load i32, ptr %4, align 4
  %8 = sext i32 %7 to i64
  %9 = sub i64 %6, %8
  %10 = inttoptr i64 %9 to ptr
  ret ptr %10
}

; Function Attrs: null_pointer_is_valid sspstrong uwtable
define internal void @megaco_calls_draw(ptr noundef %0) #0 {
  %2 = alloca ptr, align 8
  %3 = alloca ptr, align 8
  store ptr %0, ptr %2, align 8
  call void @llvm.lifetime.start.p0(i64 8, ptr %3) #16
  %4 = load ptr, ptr %2, align 8
  %5 = call ptr @tap_id_to_base(ptr noundef %4, i32 noundef 7)
  store ptr %5, ptr %3, align 8
  %6 = load ptr, ptr %3, align 8
  %7 = getelementptr inbounds nuw %struct._voip_calls_tapinfo, ptr %6, i32 0, i32 2
  %8 = load ptr, ptr %7, align 8
  %9 = icmp ne ptr %8, null
  br i1 %9, label %10, label %25

10:                                               ; preds = %1
  %11 = load ptr, ptr %3, align 8
  %12 = getelementptr inbounds nuw %struct._voip_calls_tapinfo, ptr %11, i32 0, i32 40
  %13 = load i32, ptr %12, align 8
  %14 = and i32 %13, 128
  %15 = icmp ne i32 %14, 0
  br i1 %15, label %16, label %25

16:                                               ; preds = %10
  %17 = load ptr, ptr %3, align 8
  %18 = getelementptr inbounds nuw %struct._voip_calls_tapinfo, ptr %17, i32 0, i32 2
  %19 = load ptr, ptr %18, align 8
  %20 = load ptr, ptr %3, align 8
  call void %19(ptr noundef %20)
  %21 = load ptr, ptr %3, align 8
  %22 = getelementptr inbounds nuw %struct._voip_calls_tapinfo, ptr %21, i32 0, i32 40
  %23 = load i32, ptr %22, align 8
  %24 = and i32 %23, -129
  store i32 %24, ptr %22, align 8
  br label %25

25:                                               ; preds = %16, %10, %1
  call void @llvm.lifetime.end.p0(i64 8, ptr %3) #16
  ret void
}